ccopy_reg
_reconstructor
p0
(csklearn.model_selection._search
RandomizedSearchCV
p1
c__builtin__
object
p2
Ntp3
Rp4
(dp5
S'param_distributions'
p6
(dp7
S'max_iter'
p8
(lp9
I5000
asS'dual'
p10
(lp11
I01
aI00
assS'n_jobs'
p12
NsS'verbose'
p13
I0
sS'best_estimator_'
p14
g0
(csklearn.svm.classes
LinearSVC
p15
g2
Ntp16
Rp17
(dp18
S'loss'
p19
S'squared_hinge'
p20
sS'C'
p21
F1.0
sg8
I5000
sg13
I0
sS'fit_intercept'
p22
I01
sS'random_state'
p23
NsS'classes_'
p24
cnumpy.core.multiarray
_reconstruct
p25
(cnumpy
ndarray
p26
(I0
tp27
S'b'
p28
tp29
Rp30
(I1
(L2L
tp31
cnumpy
dtype
p32
(S'i8'
p33
I0
I1
tp34
Rp35
(I3
S'<'
p36
NNNI-1
I-1
I0
tp37
bI00
S'\x00\x00\x00\x00\x00\x00\x00\x00\x01\x00\x00\x00\x00\x00\x00\x00'
p38
tp39
bsS'n_iter_'
p40
cnumpy.core.multiarray
scalar
p41
(g32
(S'i4'
p42
I0
I1
tp43
Rp44
(I3
S'<'
p45
NNNI-1
I-1
I0
tp46
bS'\x11\x00\x00\x00'
p47
tp48
Rp49
sS'intercept_scaling'
p50
I1
sS'penalty'
p51
S'l2'
p52
sS'multi_class'
p53
S'ovr'
p54
sS'coef_'
p55
g25
(g26
(I0
tp56
g28
tp57
Rp58
(I1
(L1L
L9L
tp59
g32
(S'f8'
p60
I0
I1
tp61
Rp62
(I3
S'<'
p63
NNNI-1
I-1
I0
tp64
bI00
S'\xb3\xd1\xba\x95\xfe\xe7\xbe\xbf\xeb\x05s\x01\xbb\xb8\xf0\xbf\xe6<7\x18\xa7\x1dO\xbf\xee<\x93\x0e[\xc1\xb9\xbf\xb1\x8a\x9e\xf2\xddG\xae\xbf\xbc\x06\xbf\x8by\xa57\xbf\x89\xcf\x85\xf4\x93\xd1Z?\x8d\r@\xfc\xee\xb1c?Y\xf4G\x91\xa25\xad\xbf'
p65
tp66
bsS'_sklearn_version'
p67
S'0.20.2'
p68
sg10
I00
sS'tol'
p69
F0.0001
sS'intercept_'
p70
g25
(g26
(I0
tp71
g28
tp72
Rp73
(I1
(L1L
tp74
g62
I00
S'\xe6\x19\xe1\xe0\x02q\xe9?'
p75
tp76
bsS'class_weight'
p77
NsbsS'best_params_'
p78
(dp79
g8
I5000
sg10
I00
ssS'cv'
p80
I10
sS'scoring'
p81
NsS'scorer_'
p82
csklearn.metrics.scorer
_passthrough_scorer
p83
sS'best_index_'
p84
g41
(g35
S'\x01\x00\x00\x00\x00\x00\x00\x00'
p85
tp86
Rp87
sg23
Nsg67
g68
sS'pre_dispatch'
p88
S'2*n_jobs'
p89
sS'cv_results_'
p90
g0
(csklearn.utils.deprecation
DeprecationDict
p91
c__builtin__
dict
p92
(dp93
S'rank_test_score'
p94
g25
(g26
(I0
tp95
g28
tp96
Rp97
(I1
(L2L
tp98
g32
(S'i4'
p99
I0
I1
tp100
Rp101
(I3
S'<'
p102
NNNI-1
I-1
I0
tp103
bI00
S'\x02\x00\x00\x00\x01\x00\x00\x00'
p104
tp105
bsS'param_dual'
p106
cnumpy.ma.core
_mareconstruct
p107
(cnumpy.ma.core
MaskedArray
p108
g26
(I0
tp109
g28
tp110
Rp111
(I1
(L2L
tp112
g32
(S'O8'
p113
I0
I1
tp114
Rp115
(I3
S'|'
p116
NNNI-1
I-1
I63
tp117
bI00
(lp118
I01
aI00
aS'\x00\x00'
p119
Ntp120
bsS'split6_test_score'
p121
g25
(g26
(I0
tp122
g28
tp123
Rp124
(I1
(L2L
tp125
g62
I00
S'\x84:\xa8\x83:\xa8\xe3?\x8b\xaf\xf8\x8a\xaf\xf8\xea?'
p126
tp127
bsS'split0_test_score'
p128
g25
(g26
(I0
tp129
g28
tp130
Rp131
(I1
(L2L
tp132
g62
I00
S'\x1c\xc7q\x1c\xc7q\xe4?\x00\x00\x00\x00\x00\x00\xe8?'
p133
tp134
bsS'split7_train_score'
p135
g25
(g26
(I0
tp136
g28
tp137
Rp138
(I1
(L2L
tp139
g62
I00
S'H&\xd0;u-\xe7?\xe2\xa50\x03\xfc\xc4\xe9?'
p140
tp141
bsS'std_score_time'
p142
g25
(g26
(I0
tp143
g28
tp144
Rp145
(I1
(L2L
tp146
g62
I00
S'\x86\x0f{lU\xa93?l_\xeb\xcf\xc6\x08>?'
p147
tp148
bsS'split2_test_score'
p149
g25
(g26
(I0
tp150
g28
tp151
Rp152
(I1
(L2L
tp153
g62
I00
S'\xc7q\x1c\xc7q\x1c\xe7?\xe48\x8e\xe38\x8e\xe7?'
p154
tp155
bsS'mean_fit_time'
p156
g25
(g26
(I0
tp157
g28
tp158
Rp159
(I1
(L2L
tp160
g62
I00
S'\xcd\xcc\xcc\xcc\xeb\xc0\xc1?3333\xb3}m?'
p161
tp162
bsS'split3_train_score'
p163
g25
(g26
(I0
tp164
g28
tp165
Rp166
(I1
(L2L
tp167
g62
I00
S'33333\xb3\xe7?\x00\x00\x00\x00\x00\xc0\xe9?'
p168
tp169
bsS'split6_train_score'
p170
g25
(g26
(I0
tp171
g28
tp172
Rp173
(I1
(L2L
tp174
g62
I00
S'$\x13\xe8\x9d\xba\x96\xe3?\x1d\xdc\xec\x17bE\xe9?'
p175
tp176
bsS'split9_test_score'
p177
g25
(g26
(I0
tp178
g28
tp179
Rp180
(I1
(L2L
tp181
g62
I00
S'X|\xc5W|\xc5\xe7?;\xa8\x83:\xa8\x83\xea?'
p182
tp183
bsS'std_test_score'
p184
g25
(g26
(I0
tp185
g28
tp186
Rp187
(I1
(L2L
tp188
g62
I00
S"\xba\xacM\x1343\xbd?\xe2\x89\x1c'u\xca\xa9?"
p189
tp190
bsS'params'
p191
(lp192
(dp193
g8
I5000
sg10
I01
sag79
asS'std_fit_time'
p194
g25
(g26
(I0
tp195
g28
tp196
Rp197
(I1
(L2L
tp198
g62
I00
S'~c\x9d\xf0=!i?\x88\x7f_\xa2\x14\x0e@?'
p199
tp200
bsS'param_max_iter'
p201
g107
(g108
g26
g109
g28
tp202
Rp203
(I1
(L2L
tp204
g115
I00
(lp205
I5000
aI5000
aS'\x00\x00'
p206
Ntp207
bsS'split8_test_score'
p208
g25
(g26
(I0
tp209
g28
tp210
Rp211
(I1
(L2L
tp212
g62
I00
S'\xd4A\x1d\xd4A\x1d\xe4?\x8b\xaf\xf8\x8a\xaf\xf8\xea?'
p213
tp214
bsS'std_train_score'
p215
g25
(g26
(I0
tp216
g28
tp217
Rp218
(I1
(L2L
tp219
g62
I00
S'\xccT\x9fy\xace\xbd?a\xcb\xd9\xdd\xf2\xac\x80?'
p220
tp221
bsS'split4_test_score'
p222
g25
(g26
(I0
tp223
g28
tp224
Rp225
(I1
(L2L
tp226
g62
I00
S'9\x8e\xe38\x8e\xe3\xe8?\xc7q\x1c\xc7q\x1c\xeb?'
p227
tp228
bsS'split1_train_score'
p229
g25
(g26
(I0
tp230
g28
tp231
Rp232
(I1
(L2L
tp233
g62
I00
S'fffff&\xe9?33333\xb3\xe9?'
p234
tp235
bsS'split2_train_score'
p236
g25
(g26
(I0
tp237
g28
tp238
Rp239
(I1
(L2L
tp240
g62
I00
S'\x00\x00\x00\x00\x00\x00\xe9?\xcd\xcc\xcc\xcc\xccL\xea?'
p241
tp242
bsS'split4_train_score'
p243
g25
(g26
(I0
tp244
g28
tp245
Rp246
(I1
(L2L
tp247
g62
I00
S'\x9a\x99\x99\x99\x99Y\xe8?\xcd\xcc\xcc\xcc\xcc\xcc\xe9?'
p248
tp249
bsS'mean_score_time'
p250
g25
(g26
(I0
tp251
g28
tp252
Rp253
(I1
(L2L
tp254
g62
I00
S'\x00\x00\x00\x00\x00~M?fffff\xf0F?'
p255
tp256
bsS'split9_train_score'
p257
g25
(g26
(I0
tp258
g28
tp259
Rp260
(I1
(L2L
tp261
g62
I00
S'u-\x077\xfb\x85\xe8?>2\x81\xde\xa9k\xe9?'
p262
tp263
bsS'split5_test_score'
p264
g25
(g26
(I0
tp265
g28
tp266
Rp267
(I1
(L2L
tp268
g62
I00
S'r\x1c\xc7q\x1c\xc7\xd9?r\x1c\xc7q\x1c\xc7\xe9?'
p269
tp270
bsS'mean_train_score'
p271
g25
(g26
(I0
tp272
g28
tp273
Rp274
(I1
(L2L
tp275
g62
I00
S'\x10|gt\xd7\xce\xe5?{\x81\xad\xa9\xe1\xae\xe9?'
p276
tp277
bsS'split8_train_score'
p278
g25
(g26
(I0
tp279
g28
tp280
Rp281
(I1
(L2L
tp282
g62
I00
S' \xd8\xb1\xe1\xa50\xe3?\xff\xc0\x8e\r/\x85\xe9?'
p283
tp284
bsS'split7_test_score'
p285
g25
(g26
(I0
tp286
g28
tp287
Rp288
(I1
(L2L
tp289
g62
I00
S'uP\x07uP\x07\xe5?ffffff\xe6?'
p290
tp291
bsS'split0_train_score'
p292
g25
(g26
(I0
tp293
g28
tp294
Rp295
(I1
(L2L
tp296
g62
I00
S'\x9a\x99\x99\x99\x99\x99\xe4?\x9a\x99\x99\x99\x99\x99\xe9?'
p297
tp298
bsS'mean_test_score'
p299
g25
(g26
(I0
tp300
g28
tp301
Rp302
(I1
(L2L
tp303
g62
I00
S'\x98\xc3\x1c\xe60\x87\xe5?\x17\xb8\xc0\x05.p\xe9?'
p304
tp305
bsS'split3_test_score'
p306
g25
(g26
(I0
tp307
g28
tp308
Rp309
(I1
(L2L
tp310
g62
I00
S'\x8e\xe38\x8e\xe38\xe6?\x1c\xc7q\x1c\xc7q\xe8?'
p311
tp312
bsS'split5_train_score'
p313
g25
(g26
(I0
tp314
g28
tp315
Rp316
(I1
(L2L
tp317
g62
I00
S'\x9a\x99\x99\x99\x99\x99\xd9?33333\xb3\xe9?'
p318
tp319
bsS'split1_test_score'
p320
g25
(g26
(I0
tp321
g28
tp322
Rp323
(I1
(L2L
tp324
g62
I00
S'\xc7q\x1c\xc7q\x1c\xeb?\xab\xaa\xaa\xaa\xaa\xaa\xea?'
p325
tp326
bstp327
Rp328
(dp329
S'_deprecations'
p330
(dp331
g215
((S"You are accessing a training score ('std_train_score'), which will not be available by default any more in 0.21. If you need training scores, please set return_train_score=True"
p332
cexceptions
FutureWarning
p333
tp334
(dp335
tp336
sg170
((S"You are accessing a training score ('split6_train_score'), which will not be available by default any more in 0.21. If you need training scores, please set return_train_score=True"
p337
g333
tp338
(dp339
tp340
sg271
((S"You are accessing a training score ('mean_train_score'), which will not be available by default any more in 0.21. If you need training scores, please set return_train_score=True"
p341
g333
tp342
(dp343
tp344
sg278
((S"You are accessing a training score ('split8_train_score'), which will not be available by default any more in 0.21. If you need training scores, please set return_train_score=True"
p345
g333
tp346
(dp347
tp348
sg229
((S"You are accessing a training score ('split1_train_score'), which will not be available by default any more in 0.21. If you need training scores, please set return_train_score=True"
p349
g333
tp350
(dp351
tp352
sg236
((S"You are accessing a training score ('split2_train_score'), which will not be available by default any more in 0.21. If you need training scores, please set return_train_score=True"
p353
g333
tp354
(dp355
tp356
sg135
((S"You are accessing a training score ('split7_train_score'), which will not be available by default any more in 0.21. If you need training scores, please set return_train_score=True"
p357
g333
tp358
(dp359
tp360
sg292
((S"You are accessing a training score ('split0_train_score'), which will not be available by default any more in 0.21. If you need training scores, please set return_train_score=True"
p361
g333
tp362
(dp363
tp364
sg243
((S"You are accessing a training score ('split4_train_score'), which will not be available by default any more in 0.21. If you need training scores, please set return_train_score=True"
p365
g333
tp366
(dp367
tp368
sg313
((S"You are accessing a training score ('split5_train_score'), which will not be available by default any more in 0.21. If you need training scores, please set return_train_score=True"
p369
g333
tp370
(dp371
tp372
sg163
((S"You are accessing a training score ('split3_train_score'), which will not be available by default any more in 0.21. If you need training scores, please set return_train_score=True"
p373
g333
tp374
(dp375
tp376
sg257
((S"You are accessing a training score ('split9_train_score'), which will not be available by default any more in 0.21. If you need training scores, please set return_train_score=True"
p377
g333
tp378
(dp379
tp380
ssbsS'multimetric_'
p381
I00
sS'fit_params'
p382
NsS'refit'
p383
I01
sS'iid'
p384
S'warn'
p385
sS'best_score_'
p386
g41
(g62
S'\x17\xb8\xc0\x05.p\xe9?'
p387
tp388
Rp389
sS'refit_time_'
p390
F0.003000020980834961
sS'n_iter'
p391
I10
sS'return_train_score'
p392
g385
sS'estimator'
p393
g0
(g15
g2
Ntp394
Rp395
(dp396
g19
g20
sg21
F1.0
sg50
I1
sg13
I0
sg22
I01
sg8
I1000
sg51
g52
sg53
g54
sg23
Nsg67
g68
sg10
I01
sg69
F0.0001
sg77
NsbsS'error_score'
p397
S'raise-deprecating'
p398
sS'n_splits_'
p399
I10
sb.